target datalayout = "e-m:e-p270:32:32-p271:32:32-p272:64:64-i64:64-i128:128-f80:128-n8:16:32:64-S128"
target triple = "x86_64-pc-linux-gnu"

%struct.nghttp2_session = type { %struct.nghttp2_map, %struct.nghttp2_outbound_queue, %struct.nghttp2_outbound_queue, %struct.nghttp2_outbound_queue, [8 x %struct.anon], %struct.nghttp2_active_outbound_item, %struct.nghttp2_inbound_frame, %struct.nghttp2_hd_deflater, %struct.nghttp2_hd_inflater, %struct.nghttp2_session_callbacks, %struct.nghttp2_mem, ptr, ptr, %struct.nghttp2_ratelim, i64, i64, i64, i64, i64, i64, i64, i64, i64, i64, i64, i64, i64, i64, i32, i32, i32, i32, i32, i32, i32, i32, i32, i32, i32, i32, i8, %struct.nghttp2_settings_storage, %struct.nghttp2_settings_storage, i32, i32, i32, i8, i8, i8, i8, i8, i8, [32 x i8] }
%struct.nghttp2_map = type { ptr, ptr, i64, i64 }
%struct.nghttp2_outbound_queue = type { ptr, ptr, i64 }
%struct.anon = type { %struct.nghttp2_pq }
%struct.nghttp2_pq = type { ptr, ptr, i64, i64, ptr }
%struct.nghttp2_active_outbound_item = type { ptr, %struct.nghttp2_bufs, i32 }
%struct.nghttp2_bufs = type { ptr, ptr, ptr, i64, i64, i64, i64, i64 }
%struct.nghttp2_inbound_frame = type { %union.nghttp2_frame, %union.nghttp2_ext_frame_payload, ptr, %struct.nghttp2_buf, %struct.nghttp2_buf, ptr, i64, i64, i64, i64, i32, [32 x i8] }
%union.nghttp2_frame = type { %struct.nghttp2_headers }
%struct.nghttp2_headers = type { %struct.nghttp2_frame_hd, i64, %struct.nghttp2_priority_spec, ptr, i64, i32 }
%struct.nghttp2_frame_hd = type { i64, i32, i8, i8, i8 }
%struct.nghttp2_priority_spec = type { i32, i32, i8 }
%union.nghttp2_ext_frame_payload = type { %struct.nghttp2_ext_altsvc }
%struct.nghttp2_ext_altsvc = type { ptr, i64, ptr, i64 }
%struct.nghttp2_buf = type { ptr, ptr, ptr, ptr, ptr }
%struct.nghttp2_hd_deflater = type { %struct.nghttp2_hd_context, %struct.nghttp2_hd_map, i64, i64, i8 }
%struct.nghttp2_hd_context = type { %struct.nghttp2_hd_ringbuf, ptr, i64, i64, i32, i8 }
%struct.nghttp2_hd_ringbuf = type { ptr, i64, i64, i64 }
%struct.nghttp2_hd_map = type { [128 x ptr] }
%struct.nghttp2_hd_inflater = type { %struct.nghttp2_hd_context, %struct.nghttp2_hd_huff_decode_context, %struct.nghttp2_buf, %struct.nghttp2_buf, ptr, ptr, ptr, ptr, i64, i64, i64, i64, i64, i32, i32, i8, i8, i8 }
%struct.nghttp2_hd_huff_decode_context = type { i16 }
%struct.nghttp2_session_callbacks = type { ptr, ptr, ptr, ptr, ptr, ptr, ptr, ptr, ptr, ptr, ptr, ptr, ptr, ptr, ptr, ptr, ptr, ptr, ptr, ptr, ptr, ptr, ptr, ptr, ptr, ptr, ptr, ptr }
%struct.nghttp2_mem = type { ptr, ptr, ptr, ptr, ptr }
%struct.nghttp2_ratelim = type { i64, i64, i64, i64 }
%struct.nghttp2_settings_storage = type { i32, i32, i32, i32, i32, i32, i32, i32 }
%struct.nghttp2_outbound_item = type { %union.nghttp2_frame, %union.nghttp2_ext_frame_payload, %union.nghttp2_aux_data, i64, ptr, i8 }
%union.nghttp2_aux_data = type { %struct.nghttp2_headers_aux_data }
%struct.nghttp2_headers_aux_data = type { %struct.nghttp2_data_provider_wrap, ptr, i32, i8 }
%struct.nghttp2_data_provider_wrap = type { i32, %union.anon }
%union.anon = type { %struct.anon.0 }
%struct.anon.0 = type { %union.nghttp2_data_source, ptr }
%union.nghttp2_data_source = type { ptr }

; Function Attrs: nounwind uwtable
define internal i32 @submit_headers_shared(ptr noundef %0, i8 noundef zeroext %1, i32 noundef %2, ptr noundef %3, i64 noundef %4, ptr noundef %5, ptr noundef %6) #0 {
  %8 = alloca i32, align 4
  %9 = alloca ptr, align 8
  %10 = alloca i8, align 1
  %11 = alloca i32, align 4
  %12 = alloca ptr, align 8
  %13 = alloca i64, align 8
  %14 = alloca ptr, align 8
  %15 = alloca ptr, align 8
  %16 = alloca i32, align 4
  %17 = alloca i8, align 1
  %18 = alloca ptr, align 8
  %19 = alloca ptr, align 8
  %20 = alloca i32, align 4
  %21 = alloca ptr, align 8
  %22 = alloca i32, align 4
  store ptr %0, ptr %9, align 8, !tbaa !3
  store i8 %1, ptr %10, align 1, !tbaa !13
  store i32 %2, ptr %11, align 4, !tbaa !8
  store ptr %3, ptr %12, align 8, !tbaa !10
  store i64 %4, ptr %13, align 8, !tbaa !11
  store ptr %5, ptr %14, align 8, !tbaa !14
  store ptr %6, ptr %15, align 8, !tbaa !10
  call void @llvm.lifetime.start.p0(i64 4, ptr %16) #7
  call void @llvm.lifetime.start.p0(i64 1, ptr %17) #7
  call void @llvm.lifetime.start.p0(i64 8, ptr %18) #7
  store ptr null, ptr %18, align 8, !tbaa !46
  call void @llvm.lifetime.start.p0(i64 8, ptr %19) #7
  store ptr null, ptr %19, align 8, !tbaa !10
  call void @llvm.lifetime.start.p0(i64 4, ptr %20) #7
  call void @llvm.lifetime.start.p0(i64 8, ptr %21) #7
  %23 = load ptr, ptr %9, align 8, !tbaa !3
  %24 = getelementptr inbounds nuw %struct.nghttp2_session, ptr %23, i32 0, i32 10
  store ptr %24, ptr %21, align 8, !tbaa !10
  %25 = load ptr, ptr %21, align 8, !tbaa !10
  %26 = call ptr @nghttp2_mem_malloc(ptr noundef %25, i64 noundef 160)
  store ptr %26, ptr %18, align 8, !tbaa !46
  %27 = load ptr, ptr %18, align 8, !tbaa !46
  %28 = icmp eq ptr %27, null
  br i1 %28, label %29, label %30

29:                                               ; preds = %7
  store i32 -901, ptr %16, align 4, !tbaa !8
  br label %95

30:                                               ; preds = %7
  %31 = load ptr, ptr %18, align 8, !tbaa !46
  call void @nghttp2_outbound_item_init(ptr noundef %31)
  %32 = load ptr, ptr %14, align 8, !tbaa !14
  %33 = icmp ne ptr %32, null
  br i1 %33, label %34, label %45

34:                                               ; preds = %30
  %35 = load ptr, ptr %14, align 8, !tbaa !14
  %36 = getelementptr inbounds nuw %struct.nghttp2_data_provider_wrap, ptr %35, i32 0, i32 1
  %37 = getelementptr inbounds nuw %struct.anon.0, ptr %36, i32 0, i32 1
  %38 = load ptr, ptr %37, align 8, !tbaa !13
  %39 = icmp ne ptr %38, null
  br i1 %39, label %40, label %45

40:                                               ; preds = %34
  %41 = load ptr, ptr %18, align 8, !tbaa !46
  %42 = getelementptr inbounds nuw %struct.nghttp2_outbound_item, ptr %41, i32 0, i32 2
  %43 = getelementptr inbounds nuw %struct.nghttp2_headers_aux_data, ptr %42, i32 0, i32 0
  %44 = load ptr, ptr %14, align 8, !tbaa !14
  call void @llvm.memcpy.p0.p0.i64(ptr align 8 %43, ptr align 8 %44, i64 24, i1 false), !tbaa.struct !62
  br label %45

45:                                               ; preds = %40, %34, %30
  %46 = load ptr, ptr %15, align 8, !tbaa !10
  %47 = load ptr, ptr %18, align 8, !tbaa !46
  %48 = getelementptr inbounds nuw %struct.nghttp2_outbound_item, ptr %47, i32 0, i32 2
  %49 = getelementptr inbounds nuw %struct.nghttp2_headers_aux_data, ptr %48, i32 0, i32 1
  store ptr %46, ptr %49, align 8, !tbaa !13
  %50 = load i8, ptr %10, align 1, !tbaa !13
  %51 = zext i8 %50 to i32
  %52 = and i32 %51, 33
  %53 = or i32 %52, 4
  %54 = trunc i32 %53 to i8
  store i8 %54, ptr %17, align 1, !tbaa !13
  %55 = load i32, ptr %11, align 4, !tbaa !8
  %56 = icmp eq i32 %55, -1
  br i1 %56, label %57, label %71

57:                                               ; preds = %45
  %58 = load ptr, ptr %9, align 8, !tbaa !3
  %59 = getelementptr inbounds nuw %struct.nghttp2_session, ptr %58, i32 0, i32 28
  %60 = load i32, ptr %59, align 8, !tbaa !45
  %61 = icmp ugt i32 %60, 2147483647
  br i1 %61, label %62, label %63

62:                                               ; preds = %57
  store i32 -509, ptr %16, align 4, !tbaa !8
  br label %95

63:                                               ; preds = %57
  %64 = load ptr, ptr %9, align 8, !tbaa !3
  %65 = getelementptr inbounds nuw %struct.nghttp2_session, ptr %64, i32 0, i32 28
  %66 = load i32, ptr %65, align 8, !tbaa !45
  store i32 %66, ptr %11, align 4, !tbaa !8
  %67 = load ptr, ptr %9, align 8, !tbaa !3
  %68 = getelementptr inbounds nuw %struct.nghttp2_session, ptr %67, i32 0, i32 28
  %69 = load i32, ptr %68, align 8, !tbaa !45
  %70 = add i32 %69, 2
  store i32 %70, ptr %68, align 8, !tbaa !45
  store i32 0, ptr %20, align 4, !tbaa !8
  br label %72

71:                                               ; preds = %45
  store i32 3, ptr %20, align 4, !tbaa !8
  br label %72

72:                                               ; preds = %71, %63
  %73 = load ptr, ptr %18, align 8, !tbaa !46
  %74 = getelementptr inbounds nuw %struct.nghttp2_outbound_item, ptr %73, i32 0, i32 0
  store ptr %74, ptr %19, align 8, !tbaa !10
  %75 = load ptr, ptr %19, align 8, !tbaa !10
  %76 = load i8, ptr %17, align 1, !tbaa !13
  %77 = load i32, ptr %11, align 4, !tbaa !8
  %78 = load i32, ptr %20, align 4, !tbaa !8
  %79 = load ptr, ptr %12, align 8, !tbaa !10
  %80 = load i64, ptr %13, align 8, !tbaa !11
  call void @nghttp2_frame_headers_init(ptr noundef %75, i8 noundef zeroext %76, i32 noundef %77, i32 noundef %78, ptr noundef null, ptr noundef %79, i64 noundef %80)
  %81 = load ptr, ptr %9, align 8, !tbaa !3
  %82 = load ptr, ptr %18, align 8, !tbaa !46
  %83 = call i32 @nghttp2_session_add_item(ptr noundef %81, ptr noundef %82)
  store i32 %83, ptr %16, align 4, !tbaa !8
  %84 = load i32, ptr %16, align 4, !tbaa !8
  %85 = icmp ne i32 %84, 0
  br i1 %85, label %86, label %89

86:                                               ; preds = %72
  %87 = load ptr, ptr %19, align 8, !tbaa !10
  %88 = load ptr, ptr %21, align 8, !tbaa !10
  call void @nghttp2_frame_headers_free(ptr noundef %87, ptr noundef %88)
  br label %98

89:                                               ; preds = %72
  %90 = load i32, ptr %20, align 4, !tbaa !8
  %91 = icmp eq i32 %90, 0
  br i1 %91, label %92, label %94

92:                                               ; preds = %89
  %93 = load i32, ptr %11, align 4, !tbaa !8
  store i32 %93, ptr %8, align 4
  store i32 1, ptr %22, align 4
  br label %102

94:                                               ; preds = %89
  store i32 0, ptr %8, align 4
  store i32 1, ptr %22, align 4
  br label %102

95:                                               ; preds = %62, %29
  %96 = load ptr, ptr %12, align 8, !tbaa !10
  %97 = load ptr, ptr %21, align 8, !tbaa !10
  call void @nghttp2_nv_array_del(ptr noundef %96, ptr noundef %97)
  br label %98

98:                                               ; preds = %95, %86
  %99 = load ptr, ptr %21, align 8, !tbaa !10
  %100 = load ptr, ptr %18, align 8, !tbaa !46
  call void @nghttp2_mem_free(ptr noundef %99, ptr noundef %100)
  %101 = load i32, ptr %16, align 4, !tbaa !8
  store i32 %101, ptr %8, align 4
  store i32 1, ptr %22, align 4
  br label %102

102:                                              ; preds = %98, %94, %92
  call void @llvm.lifetime.end.p0(i64 8, ptr %21) #7
  call void @llvm.lifetime.end.p0(i64 4, ptr %20) #7
  call void @llvm.lifetime.end.p0(i64 8, ptr %19) #7
  call void @llvm.lifetime.end.p0(i64 8, ptr %18) #7
  call void @llvm.lifetime.end.p0(i64 1, ptr %17) #7
  call void @llvm.lifetime.end.p0(i64 4, ptr %16) #7
  %103 = load i32, ptr %8, align 4
  ret i32 %103
}

; Function Attrs: nounwind uwtable
define internal i32 @submit_headers_shared_nva(ptr noundef %0, i8 noundef zeroext %1, i32 noundef %2, ptr noundef %3, i64 noundef %4, ptr noundef %5, ptr noundef %6) #0 {
  %8 = alloca i32, align 4
  %9 = alloca ptr, align 8
  %10 = alloca i8, align 1
  %11 = alloca i32, align 4
  %12 = alloca ptr, align 8
  %13 = alloca i64, align 8
  %14 = alloca ptr, align 8
  %15 = alloca ptr, align 8
  %16 = alloca i32, align 4
  %17 = alloca ptr, align 8
  %18 = alloca ptr, align 8
  %19 = alloca i32, align 4
  store ptr %0, ptr %9, align 8, !tbaa !3
  store i8 %1, ptr %10, align 1, !tbaa !13
  store i32 %2, ptr %11, align 4, !tbaa !8
  store ptr %3, ptr %12, align 8, !tbaa !10
  store i64 %4, ptr %13, align 8, !tbaa !11
  store ptr %5, ptr %14, align 8, !tbaa !14
  store ptr %6, ptr %15, align 8, !tbaa !10
  call void @llvm.lifetime.start.p0(i64 4, ptr %16) #7
  call void @llvm.lifetime.start.p0(i64 8, ptr %17) #7
  call void @llvm.lifetime.start.p0(i64 8, ptr %18) #7
  %20 = load ptr, ptr %9, align 8, !tbaa !3
  %21 = getelementptr inbounds nuw %struct.nghttp2_session, ptr %20, i32 0, i32 10
  store ptr %21, ptr %18, align 8, !tbaa !10
  %22 = load ptr, ptr %12, align 8, !tbaa !10
  %23 = load i64, ptr %13, align 8, !tbaa !11
  %24 = load ptr, ptr %18, align 8, !tbaa !10
  %25 = call i32 @nghttp2_nv_array_copy(ptr noundef %17, ptr noundef %22, i64 noundef %23, ptr noundef %24)
  store i32 %25, ptr %16, align 4, !tbaa !8
  %26 = load i32, ptr %16, align 4, !tbaa !8
  %27 = icmp slt i32 %26, 0
  br i1 %27, label %28, label %30

28:                                               ; preds = %7
  %29 = load i32, ptr %16, align 4, !tbaa !8
  store i32 %29, ptr %8, align 4
  store i32 1, ptr %19, align 4
  br label %39

30:                                               ; preds = %7
  %31 = load ptr, ptr %9, align 8, !tbaa !3
  %32 = load i8, ptr %10, align 1, !tbaa !13
  %33 = load i32, ptr %11, align 4, !tbaa !8
  %34 = load ptr, ptr %17, align 8, !tbaa !10
  %35 = load i64, ptr %13, align 8, !tbaa !11
  %36 = load ptr, ptr %14, align 8, !tbaa !14
  %37 = load ptr, ptr %15, align 8, !tbaa !10
  %38 = call i32 @submit_headers_shared(ptr noundef %31, i8 noundef zeroext %32, i32 noundef %33, ptr noundef %34, i64 noundef %35, ptr noundef %36, ptr noundef %37)
  store i32 %38, ptr %8, align 4
  store i32 1, ptr %19, align 4
  br label %39

39:                                               ; preds = %30, %28
  call void @llvm.lifetime.end.p0(i64 8, ptr %18) #7
  call void @llvm.lifetime.end.p0(i64 8, ptr %17) #7
  call void @llvm.lifetime.end.p0(i64 4, ptr %16) #7
  %40 = load i32, ptr %8, align 4
  ret i32 %40
}