; Function Attrs: nounwind uwtable
define internal fastcc i32 @submit_headers_shared_nva(ptr noundef %0, i8 noundef zeroext range(i8 0, 2) %1, i32 noundef range(i32 -1, -2147483648) %2, ptr noundef %3, i64 noundef %4, ptr noundef readonly %5, ptr noundef %6) unnamed_addr #0 {
  %8 = alloca ptr, align 8
  call void @llvm.lifetime.start.p0(i64 8, ptr nonnull %8) #8
  %9 = getelementptr inbounds nuw i8, ptr %0, i64 2344
  %10 = call i32 @nghttp2_nv_array_copy(ptr noundef nonnull %8, ptr noundef %3, i64 noundef %4, ptr noundef nonnull %9) #8
  %11 = icmp slt i32 %10, 0
  br i1 %11, label %submit_headers_shared.exit, label %12

12:                                               ; preds = %7
  %13 = load ptr, ptr %8, align 8, !tbaa !3
  %14 = call ptr @nghttp2_mem_malloc(ptr noundef nonnull %9, i64 noundef 160) #8
  %15 = icmp eq ptr %14, null
  br i1 %15, label %35, label %16

16:                                               ; preds = %12
  call void @nghttp2_outbound_item_init(ptr noundef nonnull %14) #8
  %.not.i = icmp eq ptr %5, null
  br i1 %.not.i, label %22, label %17

17:                                               ; preds = %16
  %18 = getelementptr inbounds nuw i8, ptr %5, i64 16
  %19 = load ptr, ptr %18, align 8, !tbaa !7
  %.not42.i = icmp eq ptr %19, null
  br i1 %.not42.i, label %22, label %20

20:                                               ; preds = %17
  %21 = getelementptr inbounds nuw i8, ptr %14, i64 96
  call void @llvm.memcpy.p0.p0.i64(ptr noundef nonnull align 8 dereferenceable(24) %21, ptr noundef nonnull readonly align 8 dereferenceable(24) %5, i64 24, i1 false), !tbaa.struct !8
  br label %22

22:                                               ; preds = %20, %17, %16
  %23 = getelementptr inbounds nuw i8, ptr %14, i64 120
  store ptr %6, ptr %23, align 8, !tbaa !7
  %24 = or disjoint i8 %1, 4
  %25 = icmp eq i32 %2, -1
  br i1 %25, label %26, label %32

26:                                               ; preds = %22
  %27 = getelementptr inbounds nuw i8, ptr %0, i64 2544
  %28 = load i32, ptr %27, align 8, !tbaa !11
  %29 = icmp slt i32 %28, 0
  br i1 %29, label %35, label %30

30:                                               ; preds = %26
  %31 = add nuw i32 %28, 2
  store i32 %31, ptr %27, align 8, !tbaa !11
  br label %32

32:                                               ; preds = %30, %22
  %.035..i = phi i32 [ %28, %30 ], [ 0, %22 ]
  %.035.i = phi i32 [ %28, %30 ], [ %2, %22 ]
  %.034.i = phi i32 [ 0, %30 ], [ 3, %22 ]
  call void @nghttp2_frame_headers_init(ptr noundef nonnull %14, i8 noundef zeroext %24, i32 noundef %.035.i, i32 noundef %.034.i, ptr noundef null, ptr noundef %13, i64 noundef %4) #8
  %33 = call i32 @nghttp2_session_add_item(ptr noundef nonnull %0, ptr noundef nonnull %14) #8
  %.not43.i = icmp eq i32 %33, 0
  br i1 %.not43.i, label %submit_headers_shared.exit, label %34

34:                                               ; preds = %32
  call void @nghttp2_frame_headers_free(ptr noundef nonnull %14, ptr noundef nonnull %9) #8
  br label %36

35:                                               ; preds = %26, %12
  %.036.i = phi i32 [ -901, %12 ], [ -509, %26 ]
  call void @nghttp2_nv_array_del(ptr noundef %13, ptr noundef nonnull %9) #8
  br label %36

36:                                               ; preds = %35, %34
  %.1.i = phi i32 [ %.036.i, %35 ], [ %33, %34 ]
  call void @nghttp2_mem_free(ptr noundef nonnull %9, ptr noundef %14) #8
  br label %submit_headers_shared.exit

submit_headers_shared.exit:                       ; preds = %36, %32, %7
  %.0 = phi i32 [ %10, %7 ], [ %.1.i, %36 ], [ %.035..i, %32 ]
  call void @llvm.lifetime.end.p0(i64 8, ptr nonnull %8) #8
  ret i32 %.0
}